; Function Attrs: nounwind uwtable
define ptr @l_Std_Sat_AIG_toCNF_projectRightAssign___rarg(ptr noundef %0, ptr noundef %1, ptr readnone captures(none) %2) #0 {
  tail call void @lean_inc_heartbeat() #3
  %4 = tail call noalias ptr @mi_malloc_small(i64 noundef 16) #3
  %5 = icmp eq ptr %4, null
  br i1 %5, label %6, label %lean_alloc_ctor.exit

6:                                                ; preds = %3
  tail call void @lean_internal_panic_out_of_memory() #4
  unreachable

lean_alloc_ctor.exit:                             ; preds = %3
  %7 = getelementptr inbounds nuw i8, ptr %4, i64 4
  store i32 1, ptr %4, align 4, !tbaa !4
  store i32 16842768, ptr %7, align 4
  %8 = getelementptr inbounds nuw i8, ptr %4, i64 8
  store ptr %1, ptr %8, align 8, !tbaa !9
  %9 = tail call ptr @lean_apply_1(ptr noundef %0, ptr noundef nonnull %4) #3
  ret ptr %9
}